target datalayout = "e-m:e-p270:32:32-p271:32:32-p272:64:64-i64:64-i128:128-f80:128-n8:16:32:64-S128"
target triple = "x86_64-pc-linux-gnu"

%struct.CTState = type { ptr, i32, i32, ptr, ptr, ptr, %struct.CCallback, [128 x i16] }
%struct.CCallback = type { [8 x %union.FPRCBArg], [8 x i64], ptr, ptr, ptr, i32, i32, i32 }
%union.FPRCBArg = type { double }
%struct.CType = type { i32, i32, i16, i16, %struct.GCRef }
%struct.GCRef = type { i64 }

; Function Attrs: alwaysinline nounwind uwtable
define internal ptr @ctype_child(ptr noundef %0, ptr noundef %1) #5 {
  %3 = alloca ptr, align 8
  %4 = alloca ptr, align 8
  store ptr %0, ptr %3, align 8, !tbaa !4
  store ptr %1, ptr %4, align 8, !tbaa !25
  %5 = load ptr, ptr %3, align 8, !tbaa !4
  %6 = load ptr, ptr %4, align 8, !tbaa !25
  %7 = getelementptr inbounds nuw %struct.CType, ptr %6, i32 0, i32 0
  %8 = load i32, ptr %7, align 8, !tbaa !26
  %9 = and i32 %8, 65535
  %10 = call ptr @ctype_get(ptr noundef %5, i32 noundef %9)
  ret ptr %10
}

; Function Attrs: alwaysinline nounwind uwtable
define internal i32 @ctype_check(ptr noundef %0, i32 noundef %1) #5 {
  %3 = alloca ptr, align 8
  %4 = alloca i32, align 4
  store ptr %0, ptr %3, align 8, !tbaa !4
  store i32 %1, ptr %4, align 4, !tbaa !21
  %5 = load i32, ptr %4, align 4, !tbaa !21
  ret i32 %5
}

; Function Attrs: alwaysinline nounwind uwtable
define internal ptr @ctype_rawchild(ptr noundef %0, ptr noundef %1) #5 {
  %3 = alloca ptr, align 8
  %4 = alloca ptr, align 8
  store ptr %0, ptr %3, align 8, !tbaa !4
  store ptr %1, ptr %4, align 8, !tbaa !25
  br label %5

5:                                                ; preds = %9, %2
  %6 = load ptr, ptr %3, align 8, !tbaa !4
  %7 = load ptr, ptr %4, align 8, !tbaa !25
  %8 = call ptr @ctype_child(ptr noundef %6, ptr noundef %7)
  store ptr %8, ptr %4, align 8, !tbaa !25
  br label %9

9:                                                ; preds = %5
  %10 = load ptr, ptr %4, align 8, !tbaa !25
  %11 = getelementptr inbounds nuw %struct.CType, ptr %10, i32 0, i32 0
  %12 = load i32, ptr %11, align 8, !tbaa !26
  %13 = lshr i32 %12, 28
  %14 = icmp eq i32 %13, 8
  br i1 %14, label %5, label %15, !llvm.loop !49

15:                                               ; preds = %9
  %16 = load ptr, ptr %4, align 8, !tbaa !25
  ret ptr %16
}

; Function Attrs: alwaysinline nounwind uwtable
define internal ptr @ctype_raw(ptr noundef %0, i32 noundef %1) #5 {
  %3 = alloca ptr, align 8
  %4 = alloca i32, align 4
  %5 = alloca ptr, align 8
  store ptr %0, ptr %3, align 8, !tbaa !4
  store i32 %1, ptr %4, align 4, !tbaa !21
  call void @llvm.lifetime.start.p0(i64 8, ptr %5) #8
  %6 = load ptr, ptr %3, align 8, !tbaa !4
  %7 = load i32, ptr %4, align 4, !tbaa !21
  %8 = call ptr @ctype_get(ptr noundef %6, i32 noundef %7)
  store ptr %8, ptr %5, align 8, !tbaa !25
  br label %9

9:                                                ; preds = %15, %2
  %10 = load ptr, ptr %5, align 8, !tbaa !25
  %11 = getelementptr inbounds nuw %struct.CType, ptr %10, i32 0, i32 0
  %12 = load i32, ptr %11, align 8, !tbaa !26
  %13 = lshr i32 %12, 28
  %14 = icmp eq i32 %13, 8
  br i1 %14, label %15, label %19

15:                                               ; preds = %9
  %16 = load ptr, ptr %3, align 8, !tbaa !4
  %17 = load ptr, ptr %5, align 8, !tbaa !25
  %18 = call ptr @ctype_child(ptr noundef %16, ptr noundef %17)
  store ptr %18, ptr %5, align 8, !tbaa !25
  br label %9, !llvm.loop !46

19:                                               ; preds = %9
  %20 = load ptr, ptr %5, align 8, !tbaa !25
  call void @llvm.lifetime.end.p0(i64 8, ptr %5) #8
  ret ptr %20
}

; Function Attrs: alwaysinline nounwind uwtable
define internal ptr @ctype_get(ptr noundef %0, i32 noundef %1) #5 {
  %3 = alloca ptr, align 8
  %4 = alloca i32, align 4
  store ptr %0, ptr %3, align 8, !tbaa !4
  store i32 %1, ptr %4, align 4, !tbaa !21
  %5 = load ptr, ptr %3, align 8, !tbaa !4
  %6 = getelementptr inbounds nuw %struct.CTState, ptr %5, i32 0, i32 0
  %7 = load ptr, ptr %6, align 8, !tbaa !24
  %8 = load ptr, ptr %3, align 8, !tbaa !4
  %9 = load i32, ptr %4, align 4, !tbaa !21
  %10 = call i32 @ctype_check(ptr noundef %8, i32 noundef %9)
  %11 = zext i32 %10 to i64
  %12 = getelementptr inbounds nuw %struct.CType, ptr %7, i64 %11
  ret ptr %12
}

; Function Attrs: nounwind uwtable
define hidden i32 @lj_ctype_vlsize(ptr noundef %0, ptr noundef %1, i32 noundef %2) #0 {
  %4 = alloca ptr, align 8
  %5 = alloca ptr, align 8
  %6 = alloca i32, align 4
  %7 = alloca i64, align 8
  %8 = alloca i32, align 4
  %9 = alloca i32, align 4
  %10 = alloca ptr, align 8
  store ptr %0, ptr %4, align 8, !tbaa !4
  store ptr %1, ptr %5, align 8, !tbaa !25
  store i32 %2, ptr %6, align 4, !tbaa !21
  call void @llvm.lifetime.start.p0(i64 8, ptr %7) #8
  store i64 0, ptr %7, align 8, !tbaa !47
  %11 = load ptr, ptr %5, align 8, !tbaa !25
  %12 = getelementptr inbounds nuw %struct.CType, ptr %11, i32 0, i32 0
  %13 = load i32, ptr %12, align 8, !tbaa !26
  %14 = lshr i32 %13, 28
  %15 = icmp eq i32 %14, 1
  br i1 %15, label %16, label %51

16:                                               ; preds = %3
  call void @llvm.lifetime.start.p0(i64 4, ptr %8) #8
  store i32 0, ptr %8, align 4, !tbaa !21
  call void @llvm.lifetime.start.p0(i64 4, ptr %9) #8
  %17 = load ptr, ptr %5, align 8, !tbaa !25
  %18 = getelementptr inbounds nuw %struct.CType, ptr %17, i32 0, i32 2
  %19 = load i16, ptr %18, align 8, !tbaa !32
  %20 = zext i16 %19 to i32
  store i32 %20, ptr %9, align 4, !tbaa !21
  %21 = load ptr, ptr %5, align 8, !tbaa !25
  %22 = getelementptr inbounds nuw %struct.CType, ptr %21, i32 0, i32 1
  %23 = load i32, ptr %22, align 4, !tbaa !31
  %24 = zext i32 %23 to i64
  store i64 %24, ptr %7, align 8, !tbaa !47
  br label %25

25:                                               ; preds = %42, %16
  %26 = load i32, ptr %9, align 4, !tbaa !21
  %27 = icmp ne i32 %26, 0
  br i1 %27, label %28, label %47

28:                                               ; preds = %25
  call void @llvm.lifetime.start.p0(i64 8, ptr %10) #8
  %29 = load ptr, ptr %4, align 8, !tbaa !4
  %30 = load i32, ptr %9, align 4, !tbaa !21
  %31 = call ptr @ctype_get(ptr noundef %29, i32 noundef %30)
  store ptr %31, ptr %10, align 8, !tbaa !25
  %32 = load ptr, ptr %10, align 8, !tbaa !25
  %33 = getelementptr inbounds nuw %struct.CType, ptr %32, i32 0, i32 0
  %34 = load i32, ptr %33, align 8, !tbaa !26
  %35 = lshr i32 %34, 28
  %36 = icmp eq i32 %35, 9
  br i1 %36, label %37, label %42

37:                                               ; preds = %28
  %38 = load ptr, ptr %10, align 8, !tbaa !25
  %39 = getelementptr inbounds nuw %struct.CType, ptr %38, i32 0, i32 0
  %40 = load i32, ptr %39, align 8, !tbaa !26
  %41 = and i32 %40, 65535
  store i32 %41, ptr %8, align 4, !tbaa !21
  br label %42

42:                                               ; preds = %37, %28
  %43 = load ptr, ptr %10, align 8, !tbaa !25
  %44 = getelementptr inbounds nuw %struct.CType, ptr %43, i32 0, i32 2
  %45 = load i16, ptr %44, align 8, !tbaa !32
  %46 = zext i16 %45 to i32
  store i32 %46, ptr %9, align 4, !tbaa !21
  call void @llvm.lifetime.end.p0(i64 8, ptr %10) #8
  br label %25, !llvm.loop !48

47:                                               ; preds = %25
  %48 = load ptr, ptr %4, align 8, !tbaa !4
  %49 = load i32, ptr %8, align 4, !tbaa !21
  %50 = call ptr @ctype_raw(ptr noundef %48, i32 noundef %49)
  store ptr %50, ptr %5, align 8, !tbaa !25
  call void @llvm.lifetime.end.p0(i64 4, ptr %9) #8
  call void @llvm.lifetime.end.p0(i64 4, ptr %8) #8
  br label %51

51:                                               ; preds = %47, %3
  %52 = load ptr, ptr %4, align 8, !tbaa !4
  %53 = load ptr, ptr %5, align 8, !tbaa !25
  %54 = call ptr @ctype_rawchild(ptr noundef %52, ptr noundef %53)
  store ptr %54, ptr %5, align 8, !tbaa !25
  %55 = load ptr, ptr %5, align 8, !tbaa !25
  %56 = getelementptr inbounds nuw %struct.CType, ptr %55, i32 0, i32 1
  %57 = load i32, ptr %56, align 4, !tbaa !31
  %58 = zext i32 %57 to i64
  %59 = load i32, ptr %6, align 4, !tbaa !21
  %60 = zext i32 %59 to i64
  %61 = mul i64 %58, %60
  %62 = load i64, ptr %7, align 8, !tbaa !47
  %63 = add i64 %62, %61
  store i64 %63, ptr %7, align 8, !tbaa !47
  %64 = load i64, ptr %7, align 8, !tbaa !47
  %65 = icmp ult i64 %64, 2147483648
  br i1 %65, label %66, label %69

66:                                               ; preds = %51
  %67 = load i64, ptr %7, align 8, !tbaa !47
  %68 = trunc i64 %67 to i32
  br label %70

69:                                               ; preds = %51
  br label %70

70:                                               ; preds = %69, %66
  %71 = phi i32 [ %68, %66 ], [ -1, %69 ]
  call void @llvm.lifetime.end.p0(i64 8, ptr %7) #8
  ret i32 %71
}