; Function Attrs: nofree norecurse nosync nounwind memory(read, inaccessiblemem: none) uwtable
define hidden i32 @lj_ctype_vlsize(ptr noundef readonly captures(none) %0, ptr noundef readonly captures(none) %1, i32 noundef %2) local_unnamed_addr #7 {
  %4 = load i32, ptr %1, align 8, !tbaa !28
  %.mask = and i32 %4, -268435456
  %5 = icmp eq i32 %.mask, 268435456
  %.pre28 = load ptr, ptr %0, align 8, !tbaa !19
  br i1 %5, label %6, label %ctype_raw.exit

6:                                                ; preds = %3
  %7 = getelementptr inbounds nuw i8, ptr %1, i64 4
  %8 = load i32, ptr %7, align 4, !tbaa !29
  %9 = zext i32 %8 to i64
  %.017.in.in23 = getelementptr inbounds nuw i8, ptr %1, i64 8
  %.017.in24 = load i16, ptr %.017.in.in23, align 8, !tbaa !32
  %.not25 = icmp eq i16 %.017.in24, 0
  br i1 %.not25, label %._crit_edge.preheader, label %.lr.ph

.lr.ph:                                           ; preds = %6, %.lr.ph
  %.017.in27 = phi i16 [ %.017.in, %.lr.ph ], [ %.017.in24, %6 ]
  %.01826 = phi i32 [ %spec.select, %.lr.ph ], [ 0, %6 ]
  %10 = zext i16 %.017.in27 to i64
  %11 = getelementptr inbounds nuw %struct.CType, ptr %.pre28, i64 %10
  %12 = load i32, ptr %11, align 8, !tbaa !28
  %.mask20 = and i32 %12, -268435456
  %13 = icmp eq i32 %.mask20, -1879048192
  %14 = and i32 %12, 65535
  %spec.select = select i1 %13, i32 %14, i32 %.01826
  %.017.in.in = getelementptr inbounds nuw i8, ptr %11, i64 8
  %.017.in = load i16, ptr %.017.in.in, align 8, !tbaa !32
  %.not = icmp eq i16 %.017.in, 0
  br i1 %.not, label %._crit_edge.preheader, label %.lr.ph, !llvm.loop !40

._crit_edge.preheader:                            ; preds = %.lr.ph, %6
  %.pn22.in.ph = phi i32 [ 0, %6 ], [ %spec.select, %.lr.ph ]
  br label %._crit_edge

._crit_edge:                                      ; preds = %._crit_edge.preheader, %._crit_edge
  %.pn22.in = phi i32 [ %17, %._crit_edge ], [ %.pn22.in.ph, %._crit_edge.preheader ]
  %.pn22 = zext nneg i32 %.pn22.in to i64
  %.0.i = getelementptr inbounds nuw %struct.CType, ptr %.pre28, i64 %.pn22
  %15 = load i32, ptr %.0.i, align 8, !tbaa !28
  %16 = icmp slt i32 %15, -1879048192
  %17 = and i32 %15, 65535
  br i1 %16, label %._crit_edge, label %ctype_raw.exit, !llvm.loop !39

ctype_raw.exit:                                   ; preds = %._crit_edge, %3
  %18 = phi i32 [ %4, %3 ], [ %15, %._crit_edge ]
  %.019 = phi i64 [ 0, %3 ], [ %9, %._crit_edge ]
  br label %19

19:                                               ; preds = %19, %ctype_raw.exit
  %20 = phi i32 [ %18, %ctype_raw.exit ], [ %24, %19 ]
  %21 = and i32 %20, 65535
  %22 = zext nneg i32 %21 to i64
  %23 = getelementptr inbounds nuw %struct.CType, ptr %.pre28, i64 %22
  %24 = load i32, ptr %23, align 8, !tbaa !28
  %25 = icmp slt i32 %24, -1879048192
  br i1 %25, label %19, label %ctype_rawchild.exit, !llvm.loop !41

ctype_rawchild.exit:                              ; preds = %19
  %26 = getelementptr inbounds nuw i8, ptr %23, i64 4
  %27 = load i32, ptr %26, align 4, !tbaa !29
  %28 = zext i32 %27 to i64
  %29 = zext i32 %2 to i64
  %30 = mul nuw i64 %28, %29
  %31 = add nuw i64 %30, %.019
  %32 = icmp ult i64 %31, 2147483648
  %33 = trunc i64 %31 to i32
  %34 = select i1 %32, i32 %33, i32 -1
  ret i32 %34
}